; Function Attrs: mustprogress uwtable
define void @_ZN7rocksdb12experimental9PromoteL0EPNS_2DBEPNS_18ColumnFamilyHandleEi(ptr dead_on_unwind noalias writable sret(%"class.rocksdb::Status") align 8 %0, ptr noundef %1, ptr noundef %2, i32 noundef %3) local_unnamed_addr #4 {
  %5 = alloca %"class.rocksdb::Slice", align 8
  %6 = alloca %"class.rocksdb::Slice", align 8
  %7 = icmp eq ptr %1, null
  br i1 %7, label %8, label %11

8:                                                ; preds = %4
  call void @llvm.lifetime.start.p0(i64 16, ptr nonnull %5) #34
  store ptr @.str.41, ptr %5, align 8, !tbaa !18
  %9 = getelementptr inbounds nuw i8, ptr %5, i64 8
  store i64 26, ptr %9, align 8, !tbaa !20
  call void @llvm.lifetime.start.p0(i64 16, ptr nonnull %6) #34
  store ptr @.str, ptr %6, align 8, !tbaa !18
  %10 = getelementptr inbounds nuw i8, ptr %6, i64 8
  store i64 0, ptr %10, align 8, !tbaa !20
  call void @_ZN7rocksdb6StatusC2ENS0_4CodeENS0_7SubCodeERKNS_5SliceES5_NS0_8SeverityE(ptr noundef nonnull align 8 dereferenceable(16) %0, i8 noundef zeroext 4, i8 noundef zeroext 0, ptr noundef nonnull align 8 dereferenceable(16) %5, ptr noundef nonnull align 8 dereferenceable(16) %6, i8 noundef zeroext 0)
  call void @llvm.lifetime.end.p0(i64 16, ptr nonnull %6) #34
  call void @llvm.lifetime.end.p0(i64 16, ptr nonnull %5) #34
  br label %15

11:                                               ; preds = %4
  %12 = load ptr, ptr %1, align 8, !tbaa !21
  %13 = getelementptr inbounds nuw i8, ptr %12, i64 1128
  %14 = load ptr, ptr %13, align 8
  tail call void %14(ptr dead_on_unwind writable sret(%"class.rocksdb::Status") align 8 %0, ptr noundef nonnull align 8 dereferenceable(8) %1, ptr noundef %2, i32 noundef %3)
  br label %15

15:                                               ; preds = %11, %8
  ret void
}